target datalayout = "e-m:e-p270:32:32-p271:32:32-p272:64:64-i64:64-i128:128-f80:128-n8:16:32:64-S128"
target triple = "x86_64-pc-linux-gnu"

%struct.stbvox_mesh_maker = type { %struct.stbvox_input_description, i32, i32, i32, i32, i32, i32, i32, i32, i32, i32, i32, i32, i32, i32, [6 x [4 x i32]], [6 x [4 x i32]], i32, i32, i32, i32, [2 x [3 x ptr]], [2 x [3 x ptr]], [2 x [3 x ptr]], [2 x [3 x i32]], [2 x [3 x i32]], [2 x [3 x i32]], i32, [128 x [2 x float]] }
%struct.stbvox_input_description = type { i8, ptr, ptr, ptr, ptr, ptr, ptr, ptr, ptr, ptr, ptr, ptr, ptr, ptr, ptr, ptr, ptr, ptr, ptr, ptr, ptr, ptr, ptr, ptr, ptr, ptr, ptr, ptr, ptr, ptr, ptr, ptr, ptr, ptr, ptr, ptr, ptr, ptr, ptr, ptr, ptr, ptr, ptr }

; Function Attrs: nounwind uwtable
define void @stbvox_bring_up_to_date(ptr noundef %0) #0 {
  %2 = alloca ptr, align 8
  %3 = alloca i32, align 4
  store ptr %0, ptr %2, align 8, !tbaa !20
  %4 = load ptr, ptr %2, align 8, !tbaa !20
  %5 = getelementptr inbounds nuw %struct.stbvox_mesh_maker, ptr %4, i32 0, i32 12
  %6 = load i32, ptr %5, align 4, !tbaa !102
  %7 = icmp ne i32 %6, 0
  br i1 %7, label %8, label %33

8:                                                ; preds = %1
  call void @llvm.lifetime.start.p0(i64 4, ptr %3) #4
  %9 = load ptr, ptr %2, align 8, !tbaa !20
  %10 = getelementptr inbounds nuw %struct.stbvox_mesh_maker, ptr %9, i32 0, i32 27
  store i32 1, ptr %10, align 8, !tbaa !103
  store i32 0, ptr %3, align 4, !tbaa !3
  br label %11

11:                                               ; preds = %27, %8
  %12 = load i32, ptr %3, align 4, !tbaa !3
  %13 = icmp slt i32 %12, 2
  br i1 %13, label %14, label %30

14:                                               ; preds = %11
  %15 = load ptr, ptr %2, align 8, !tbaa !20
  %16 = getelementptr inbounds nuw %struct.stbvox_mesh_maker, ptr %15, i32 0, i32 25
  %17 = load i32, ptr %3, align 4, !tbaa !3
  %18 = sext i32 %17 to i64
  %19 = getelementptr inbounds [2 x [3 x i32]], ptr %16, i64 0, i64 %18
  %20 = getelementptr inbounds [3 x i32], ptr %19, i64 0, i64 0
  store i32 32, ptr %20, align 4, !tbaa !3
  %21 = load ptr, ptr %2, align 8, !tbaa !20
  %22 = getelementptr inbounds nuw %struct.stbvox_mesh_maker, ptr %21, i32 0, i32 26
  %23 = load i32, ptr %3, align 4, !tbaa !3
  %24 = sext i32 %23 to i64
  %25 = getelementptr inbounds [2 x [3 x i32]], ptr %22, i64 0, i64 %24
  %26 = getelementptr inbounds [3 x i32], ptr %25, i64 0, i64 0
  store i32 8, ptr %26, align 4, !tbaa !3
  br label %27

27:                                               ; preds = %14
  %28 = load i32, ptr %3, align 4, !tbaa !3
  %29 = add nsw i32 %28, 1
  store i32 %29, ptr %3, align 4, !tbaa !3
  br label %11, !llvm.loop !104

30:                                               ; preds = %11
  %31 = load ptr, ptr %2, align 8, !tbaa !20
  %32 = getelementptr inbounds nuw %struct.stbvox_mesh_maker, ptr %31, i32 0, i32 12
  store i32 0, ptr %32, align 4, !tbaa !102
  call void @llvm.lifetime.end.p0(i64 4, ptr %3) #4
  br label %33

33:                                               ; preds = %30, %1
  ret void
}