; Function Attrs: nofree norecurse nosync nounwind memory(argmem: readwrite) uwtable
define void @stbvox_bring_up_to_date(ptr noundef captures(none) %0) local_unnamed_addr #9 {
  %2 = getelementptr inbounds nuw i8, ptr %0, i64 388
  %3 = load i32, ptr %2, align 4, !tbaa !86
  %.not = icmp eq i32 %3, 0
  br i1 %.not, label %9, label %.critedge

.critedge:                                        ; preds = %1
  %4 = getelementptr inbounds nuw i8, ptr %0, i64 824
  store i32 1, ptr %4, align 8, !tbaa !87
  %5 = getelementptr inbounds nuw i8, ptr %0, i64 776
  %6 = getelementptr inbounds nuw i8, ptr %0, i64 800
  store i32 32, ptr %5, align 4, !tbaa !14
  store i32 8, ptr %6, align 4, !tbaa !14
  %7 = getelementptr inbounds nuw i8, ptr %0, i64 788
  store i32 32, ptr %7, align 4, !tbaa !14
  %8 = getelementptr inbounds nuw i8, ptr %0, i64 812
  store i32 8, ptr %8, align 4, !tbaa !14
  store i32 0, ptr %2, align 4, !tbaa !86
  br label %9

9:                                                ; preds = %.critedge, %1
  ret void
}